(dp1
S'dirs'
p2
(dp3
S''
ccopy_reg
_reconstructor
p4
(cpida.core.indexer
FileInfo
p5
c__builtin__
object
p6
NtRp7
(dp8
S'basename'
p9
S''
sS'doctype'
p10
NsS'ext'
p11
S''
sS'is_file'
p12
I00
sS'mtime'
p13
F1287754019.8968029
sS'is_dir'
p14
I01
sS'dirname'
p15
S''
sS'children'
p16
(dp17
S'facebook.pyc'
p18
g4
(g5
g6
NtRp19
(dp20
g9
g18
sg10
Nsg11
S'.pyc'
p21
sg12
I01
sg13
F1287020418
sg14
I00
sg15
S''
sg16
(dp22
sS'relpath'
p23
g18
sbsS'bulkloader.yaml'
p24
g4
(g5
g6
NtRp25
(dp26
g9
g24
sg10
Nsg11
S'.yaml'
p27
sg12
I01
sg13
F1287019138
sg14
I00
sg15
S''
sg16
(dp28
sg23
g24
sbsS'index.yaml'
p29
g4
(g5
g6
NtRp30
(dp31
g9
g29
sg10
Nsg11
S'.yaml'
p32
sg12
I01
sg13
F1286765834
sg14
I00
sg15
S''
sg16
(dp33
sg23
g29
sbsS'static'
p34
g4
(g5
g6
NtRp35
(dp36
g9
g34
sg10
Nsg11
S''
sg12
I00
sg13
F1287757098
sg14
I01
sg15
S''
sg16
(dp37
S'stranger.gif'
p38
g4
(g5
g6
NtRp39
(dp40
g9
g38
sg10
Nsg11
S'.gif'
p41
sg12
I01
sg13
F1287443302
sg14
I00
sg15
S'static'
p42
sg16
(dp43
sg23
S'static/stranger.gif'
p44
sbsS'._base.css'
p45
g4
(g5
g6
NtRp46
(dp47
g9
g45
sg10
S'Css'
p48
sg11
S'.css'
p49
sg12
I01
sg13
F1287757098
sg14
I00
sg15
S'static'
p50
sg16
(dp51
sg23
S'static/._base.css'
p52
sbsS'base.css'
p53
g4
(g5
g6
NtRp54
(dp55
g9
g53
sg10
g48
sg11
S'.css'
p56
sg12
I01
sg13
F1287537868
sg14
I00
sg15
S'static'
p57
sg16
(dp58
sg23
S'static/base.css'
p59
sbssg23
g34
sbsS'app.yaml'
p60
g4
(g5
g6
NtRp61
(dp62
g9
g60
sg10
Nsg11
S'.yaml'
p63
sg12
I01
sg13
F1287538904
sg14
I00
sg15
S''
sg16
(dp64
sg23
g60
sbsS'models.py'
p65
g4
(g5
g6
NtRp66
(dp67
g9
g65
sg10
S'Python'
p68
sg11
S'.py'
p69
sg12
I01
sg13
F1285941228
sg14
I00
sg15
S''
sg16
(dp70
sg23
g65
sbsS'config.py'
p71
g4
(g5
g6
NtRp72
(dp73
g9
g71
sg10
g68
sg11
S'.py'
p74
sg12
I01
sg13
F1286731720
sg14
I00
sg15
S''
sg16
(dp75
sg23
g71
sbsS'._index.yaml'
p76
g4
(g5
g6
NtRp77
(dp78
g9
g76
sg10
Nsg11
S'.yaml'
p79
sg12
I01
sg13
F1287757096
sg14
I00
sg15
S''
sg16
(dp80
sg23
g76
sbsS'._app.yaml'
p81
g4
(g5
g6
NtRp82
(dp83
g9
g81
sg10
Nsg11
S'.yaml'
p84
sg12
I01
sg13
F1287757096
sg14
I00
sg15
S''
sg16
(dp85
sg23
g81
sbsS'._bulkloader.yaml'
p86
g4
(g5
g6
NtRp87
(dp88
g9
g86
sg10
Nsg11
S'.yaml'
p89
sg12
I01
sg13
F1287757096
sg14
I00
sg15
S''
sg16
(dp90
sg23
g86
sbsS'._base.py'
p91
g4
(g5
g6
NtRp92
(dp93
g9
g91
sg10
g68
sg11
S'.py'
p94
sg12
I01
sg13
F1287757096
sg14
I00
sg15
S''
sg16
(dp95
sg23
g91
sbsS'._queue.yaml'
p96
g4
(g5
g6
NtRp97
(dp98
g9
g96
sg10
Nsg11
S'.yaml'
p99
sg12
I01
sg13
F1287757098
sg14
I00
sg15
S''
sg16
(dp100
sg23
g96
sbsS'.DS_Store'
p101
g4
(g5
g6
NtRp102
(dp103
g9
g101
sg10
Nsg11
S''
sg12
I01
sg13
F1287442888
sg14
I00
sg15
S''
sg16
(dp104
sg23
g101
sbsS'._.DS_Store'
p105
g4
(g5
g6
NtRp106
(dp107
g9
g105
sg10
Nsg11
S'.DS_Store'
p108
sg12
I01
sg13
F1287757096
sg14
I00
sg15
S''
sg16
(dp109
sg23
g105
sbsS'templates'
p110
g4
(g5
g6
NtRp111
(dp112
g9
g110
sg10
Nsg11
S''
sg12
I00
sg13
F1287757098
sg14
I01
sg15
S''
sg16
(dp113
S'._index.html'
p114
g4
(g5
g6
NtRp115
(dp116
g9
g114
sg10
S'Html'
p117
sg11
S'.html'
p118
sg12
I01
sg13
F1287757098
sg14
I00
sg15
S'templates'
p119
sg16
(dp120
sg23
S'templates/._index.html'
p121
sbsS'._header.html'
p122
g4
(g5
g6
NtRp123
(dp124
g9
g122
sg10
g117
sg11
S'.html'
p125
sg12
I01
sg13
F1287757098
sg14
I00
sg15
S'templates'
p126
sg16
(dp127
sg23
S'templates/._header.html'
p128
sbsS'index.html'
p129
g4
(g5
g6
NtRp130
(dp131
g9
g129
sg10
g117
sg11
S'.html'
p132
sg12
I01
sg13
F1287538662
sg14
I00
sg15
S'templates'
p133
sg16
(dp134
sg23
S'templates/index.html'
p135
sbsS'._footer.html'
p136
g4
(g5
g6
NtRp137
(dp138
g9
g136
sg10
g117
sg11
S'.html'
p139
sg12
I01
sg13
F1287757098
sg14
I00
sg15
S'templates'
p140
sg16
(dp141
sg23
S'templates/._footer.html'
p142
sbsS'._fql.html'
p143
g4
(g5
g6
NtRp144
(dp145
g9
g143
sg10
g117
sg11
S'.html'
p146
sg12
I01
sg13
F1287757098
sg14
I00
sg15
S'templates'
p147
sg16
(dp148
sg23
S'templates/._fql.html'
p149
sbsS'header.html'
p150
g4
(g5
g6
NtRp151
(dp152
g9
g150
sg10
g117
sg11
S'.html'
p153
sg12
I01
sg13
F1287538588
sg14
I00
sg15
S'templates'
p154
sg16
(dp155
sg23
S'templates/header.html'
p156
sbsS'user.html'
p157
g4
(g5
g6
NtRp158
(dp159
g9
g157
sg10
g117
sg11
S'.html'
p160
sg12
I01
sg13
F1287490150
sg14
I00
sg15
S'templates'
p161
sg16
(dp162
sg23
S'templates/user.html'
p163
sbsS'fql.html'
p164
g4
(g5
g6
NtRp165
(dp166
g9
g164
sg10
g117
sg11
S'.html'
p167
sg12
I01
sg13
F1286734536
sg14
I00
sg15
S'templates'
p168
sg16
(dp169
sg23
S'templates/fql.html'
p170
sbsS'._user.html'
p171
g4
(g5
g6
NtRp172
(dp173
g9
g171
sg10
g117
sg11
S'.html'
p174
sg12
I01
sg13
F1287757098
sg14
I00
sg15
S'templates'
p175
sg16
(dp176
sg23
S'templates/._user.html'
p177
sbsS'footer.html'
p178
g4
(g5
g6
NtRp179
(dp180
g9
g178
sg10
g117
sg11
S'.html'
p181
sg12
I01
sg13
F1286662774
sg14
I00
sg15
S'templates'
p182
sg16
(dp183
sg23
S'templates/footer.html'
p184
sbssg23
g110
sbsS'.pida-metadata'
p185
g4
(g5
g6
NtRp186
(dp187
g9
g185
sg10
Nsg11
S''
sg12
I00
sg13
F1287754019.8968029
sg14
I01
sg15
S''
sg16
(dp188
S'project.json'
p189
g4
(g5
g6
NtRp190
(dp191
g9
g189
sg10
S'Javascript'
p192
sg11
S'.json'
p193
sg12
I01
sg13
F1287754019
sg14
I00
sg15
S'.pida-metadata'
p194
sg16
(dp195
sg23
S'.pida-metadata/project.json'
p196
sbssg23
g185
sbsS'fql.pyc'
p197
g4
(g5
g6
NtRp198
(dp199
g9
g197
sg10
Nsg11
S'.pyc'
p200
sg12
I01
sg13
F1285550632
sg14
I00
sg15
S''
sg16
(dp201
sg23
g197
sbsS'queue.yaml'
p202
g4
(g5
g6
NtRp203
(dp204
g9
g202
sg10
Nsg11
S'.yaml'
p205
sg12
I01
sg13
F1286757908
sg14
I00
sg15
S''
sg16
(dp206
sg23
g202
sbsS'models.pyc'
p207
g4
(g5
g6
NtRp208
(dp209
g9
g207
sg10
Nsg11
S'.pyc'
p210
sg12
I01
sg13
F1287020420
sg14
I00
sg15
S''
sg16
(dp211
sg23
g207
sbsS'config.pyc'
p212
g4
(g5
g6
NtRp213
(dp214
g9
g212
sg10
Nsg11
S'.pyc'
p215
sg12
I01
sg13
F1287020418
sg14
I00
sg15
S''
sg16
(dp216
sg23
g212
sbsS'._facebook.py'
p217
g4
(g5
g6
NtRp218
(dp219
g9
g217
sg10
g68
sg11
S'.py'
p220
sg12
I01
sg13
F1287757096
sg14
I00
sg15
S''
sg16
(dp221
sg23
g217
sbsS'queue.py'
p222
g4
(g5
g6
NtRp223
(dp224
g9
g222
sg10
g68
sg11
S'.py'
p225
sg12
I01
sg13
F1287442632
sg14
I00
sg15
S''
sg16
(dp226
sg23
g222
sbsS'._models.py'
p227
g4
(g5
g6
NtRp228
(dp229
g9
g227
sg10
g68
sg11
S'.py'
p230
sg12
I01
sg13
F1287757096
sg14
I00
sg15
S''
sg16
(dp231
sg23
g227
sbsS'geo'
p232
g4
(g5
g6
NtRp233
(dp234
g9
g232
sg10
Nsg11
S''
sg12
I00
sg13
F1287757096
sg14
I01
sg15
S''
sg16
(dp235
S'__init__.pyc'
p236
g4
(g5
g6
NtRp237
(dp238
g9
g236
sg10
Nsg11
S'.pyc'
p239
sg12
I01
sg13
F1285550634
sg14
I00
sg15
S'geo'
p240
sg16
(dp241
sg23
S'geo/__init__.pyc'
p242
sbsS'geotypes.pyc'
p243
g4
(g5
g6
NtRp244
(dp245
g9
g243
sg10
Nsg11
S'.pyc'
p246
sg12
I01
sg13
F1285550634
sg14
I00
sg15
S'geo'
p247
sg16
(dp248
sg23
S'geo/geotypes.pyc'
p249
sbsS'geomath.py'
p250
g4
(g5
g6
NtRp251
(dp252
g9
g250
sg10
g68
sg11
S'.py'
p253
sg12
I01
sg13
F1284597964
sg14
I00
sg15
S'geo'
p254
sg16
(dp255
sg23
S'geo/geomath.py'
p256
sbsS'geocell.pyc'
p257
g4
(g5
g6
NtRp258
(dp259
g9
g257
sg10
Nsg11
S'.pyc'
p260
sg12
I01
sg13
F1285550634
sg14
I00
sg15
S'geo'
p261
sg16
(dp262
sg23
S'geo/geocell.pyc'
p263
sbsS'util.pyc'
p264
g4
(g5
g6
NtRp265
(dp266
g9
g264
sg10
Nsg11
S'.pyc'
p267
sg12
I01
sg13
F1285550634
sg14
I00
sg15
S'geo'
p268
sg16
(dp269
sg23
S'geo/util.pyc'
p270
sbsS'util.py'
p271
g4
(g5
g6
NtRp272
(dp273
g9
g271
sg10
g68
sg11
S'.py'
p274
sg12
I01
sg13
F1284597964
sg14
I00
sg15
S'geo'
p275
sg16
(dp276
sg23
S'geo/util.py'
p277
sbsS'tests'
p278
g4
(g5
g6
NtRp279
(dp280
g9
g278
sg10
Nsg11
S''
sg12
I00
sg13
F1287757096
sg14
I01
sg15
S'geo'
p281
sg16
(dp282
S'geotypes_test.py'
p283
g4
(g5
g6
NtRp284
(dp285
g9
g283
sg10
g68
sg11
S'.py'
p286
sg12
I01
sg13
F1284597964
sg14
I00
sg15
S'geo/tests'
p287
sg16
(dp288
sg23
S'geo/tests/geotypes_test.py'
p289
sbsS'geomodel.txt'
p290
g4
(g5
g6
NtRp291
(dp292
g9
g290
sg10
S'Text'
p293
sg11
S'.txt'
p294
sg12
I01
sg13
F1284597964
sg14
I00
sg15
S'geo/tests'
p295
sg16
(dp296
sg23
S'geo/tests/geomodel.txt'
p297
sbsS'test_coverage.sh'
p298
g4
(g5
g6
NtRp299
(dp300
g9
g298
sg10
S'Bash'
p301
sg11
S'.sh'
p302
sg12
I01
sg13
F1284597964
sg14
I00
sg15
S'geo/tests'
p303
sg16
(dp304
sg23
S'geo/tests/test_coverage.sh'
p305
sbsS'util_test.py'
p306
g4
(g5
g6
NtRp307
(dp308
g9
g306
sg10
g68
sg11
S'.py'
p309
sg12
I01
sg13
F1284597964
sg14
I00
sg15
S'geo/tests'
p310
sg16
(dp311
sg23
S'geo/tests/util_test.py'
p312
sbsS'geomath_test.py'
p313
g4
(g5
g6
NtRp314
(dp315
g9
g313
sg10
g68
sg11
S'.py'
p316
sg12
I01
sg13
F1284597964
sg14
I00
sg15
S'geo/tests'
p317
sg16
(dp318
sg23
S'geo/tests/geomath_test.py'
p319
sbsS'geocell_test.py'
p320
g4
(g5
g6
NtRp321
(dp322
g9
g320
sg10
g68
sg11
S'.py'
p323
sg12
I01
sg13
F1284597964
sg14
I00
sg15
S'geo/tests'
p324
sg16
(dp325
sg23
S'geo/tests/geocell_test.py'
p326
sbsS'app.yaml'
p327
g4
(g5
g6
NtRp328
(dp329
g9
g327
sg10
Nsg11
S'.yaml'
p330
sg12
I01
sg13
F1284597964
sg14
I00
sg15
S'geo/tests'
p331
sg16
(dp332
sg23
S'geo/tests/app.yaml'
p333
sbsS'.svn'
p334
g4
(g5
g6
NtRp335
(dp336
g9
g334
sg10
Nsg11
S''
sg12
I00
sg13
F1287757096
sg14
I01
sg15
S'geo/tests'
p337
sg16
(dp338
S'text-base'
p339
g4
(g5
g6
NtRp340
(dp341
g9
g339
sg10
Nsg11
S''
sg12
I00
sg13
F1287757096
sg14
I01
sg15
S'geo/tests/.svn'
p342
sg16
(dp343
S'app.yaml.svn-base'
p344
g4
(g5
g6
NtRp345
(dp346
g9
g344
sg10
Nsg11
S'.svn-base'
p347
sg12
I01
sg13
F1284597964
sg14
I00
sg15
S'geo/tests/.svn/text-base'
p348
sg16
(dp349
sg23
S'geo/tests/.svn/text-base/app.yaml.svn-base'
p350
sbsS'geocell_test.py.svn-base'
p351
g4
(g5
g6
NtRp352
(dp353
g9
g351
sg10
Nsg11
S'.svn-base'
p354
sg12
I01
sg13
F1284597964
sg14
I00
sg15
S'geo/tests/.svn/text-base'
p355
sg16
(dp356
sg23
S'geo/tests/.svn/text-base/geocell_test.py.svn-base'
p357
sbsS'util_test.py.svn-base'
p358
g4
(g5
g6
NtRp359
(dp360
g9
g358
sg10
Nsg11
S'.svn-base'
p361
sg12
I01
sg13
F1284597964
sg14
I00
sg15
S'geo/tests/.svn/text-base'
p362
sg16
(dp363
sg23
S'geo/tests/.svn/text-base/util_test.py.svn-base'
p364
sbsS'geomodel.txt.svn-base'
p365
g4
(g5
g6
NtRp366
(dp367
g9
g365
sg10
Nsg11
S'.svn-base'
p368
sg12
I01
sg13
F1284597964
sg14
I00
sg15
S'geo/tests/.svn/text-base'
p369
sg16
(dp370
sg23
S'geo/tests/.svn/text-base/geomodel.txt.svn-base'
p371
sbsS'geotypes_test.py.svn-base'
p372
g4
(g5
g6
NtRp373
(dp374
g9
g372
sg10
Nsg11
S'.svn-base'
p375
sg12
I01
sg13
F1284597964
sg14
I00
sg15
S'geo/tests/.svn/text-base'
p376
sg16
(dp377
sg23
S'geo/tests/.svn/text-base/geotypes_test.py.svn-base'
p378
sbsS'geomath_test.py.svn-base'
p379
g4
(g5
g6
NtRp380
(dp381
g9
g379
sg10
Nsg11
S'.svn-base'
p382
sg12
I01
sg13
F1284597964
sg14
I00
sg15
S'geo/tests/.svn/text-base'
p383
sg16
(dp384
sg23
S'geo/tests/.svn/text-base/geomath_test.py.svn-base'
p385
sbsS'test_coverage.sh.svn-base'
p386
g4
(g5
g6
NtRp387
(dp388
g9
g386
sg10
Nsg11
S'.svn-base'
p389
sg12
I01
sg13
F1284597964
sg14
I00
sg15
S'geo/tests/.svn/text-base'
p390
sg16
(dp391
sg23
S'geo/tests/.svn/text-base/test_coverage.sh.svn-base'
p392
sbssg23
S'geo/tests/.svn/text-base'
p393
sbsS'all-wcprops'
p394
g4
(g5
g6
NtRp395
(dp396
g9
g394
sg10
Nsg11
S''
sg12
I01
sg13
F1284597964
sg14
I00
sg15
S'geo/tests/.svn'
p397
sg16
(dp398
sg23
S'geo/tests/.svn/all-wcprops'
p399
sbsS'entries'
p400
g4
(g5
g6
NtRp401
(dp402
g9
g400
sg10
Nsg11
S''
sg12
I01
sg13
F1284597964
sg14
I00
sg15
S'geo/tests/.svn'
p403
sg16
(dp404
sg23
S'geo/tests/.svn/entries'
p405
sbssg23
S'geo/tests/.svn'
p406
sbssg23
S'geo/tests'
p407
sbsS'__init__.py'
p408
g4
(g5
g6
NtRp409
(dp410
g9
g408
sg10
g68
sg11
S'.py'
p411
sg12
I01
sg13
F1284597964
sg14
I00
sg15
S'geo'
p412
sg16
(dp413
sg23
S'geo/__init__.py'
p414
sbsS'.svn'
p415
g4
(g5
g6
NtRp416
(dp417
g9
g415
sg10
Nsg11
S''
sg12
I00
sg13
F1287757096
sg14
I01
sg15
S'geo'
p418
sg16
(dp419
S'text-base'
p420
g4
(g5
g6
NtRp421
(dp422
g9
g420
sg10
Nsg11
S''
sg12
I00
sg13
F1287757096
sg14
I01
sg15
S'geo/.svn'
p423
sg16
(dp424
S'geomodel.py.svn-base'
p425
g4
(g5
g6
NtRp426
(dp427
g9
g425
sg10
Nsg11
S'.svn-base'
p428
sg12
I01
sg13
F1284597964
sg14
I00
sg15
S'geo/.svn/text-base'
p429
sg16
(dp430
sg23
S'geo/.svn/text-base/geomodel.py.svn-base'
p431
sbsS'__init__.py.svn-base'
p432
g4
(g5
g6
NtRp433
(dp434
g9
g432
sg10
Nsg11
S'.svn-base'
p435
sg12
I01
sg13
F1284597964
sg14
I00
sg15
S'geo/.svn/text-base'
p436
sg16
(dp437
sg23
S'geo/.svn/text-base/__init__.py.svn-base'
p438
sbsS'geocell.py.svn-base'
p439
g4
(g5
g6
NtRp440
(dp441
g9
g439
sg10
Nsg11
S'.svn-base'
p442
sg12
I01
sg13
F1284597964
sg14
I00
sg15
S'geo/.svn/text-base'
p443
sg16
(dp444
sg23
S'geo/.svn/text-base/geocell.py.svn-base'
p445
sbsS'geotypes.py.svn-base'
p446
g4
(g5
g6
NtRp447
(dp448
g9
g446
sg10
Nsg11
S'.svn-base'
p449
sg12
I01
sg13
F1284597964
sg14
I00
sg15
S'geo/.svn/text-base'
p450
sg16
(dp451
sg23
S'geo/.svn/text-base/geotypes.py.svn-base'
p452
sbsS'util.py.svn-base'
p453
g4
(g5
g6
NtRp454
(dp455
g9
g453
sg10
Nsg11
S'.svn-base'
p456
sg12
I01
sg13
F1284597964
sg14
I00
sg15
S'geo/.svn/text-base'
p457
sg16
(dp458
sg23
S'geo/.svn/text-base/util.py.svn-base'
p459
sbsS'geomath.py.svn-base'
p460
g4
(g5
g6
NtRp461
(dp462
g9
g460
sg10
Nsg11
S'.svn-base'
p463
sg12
I01
sg13
F1284597964
sg14
I00
sg15
S'geo/.svn/text-base'
p464
sg16
(dp465
sg23
S'geo/.svn/text-base/geomath.py.svn-base'
p466
sbssg23
S'geo/.svn/text-base'
p467
sbsS'all-wcprops'
p468
g4
(g5
g6
NtRp469
(dp470
g9
g468
sg10
Nsg11
S''
sg12
I01
sg13
F1284597964
sg14
I00
sg15
S'geo/.svn'
p471
sg16
(dp472
sg23
S'geo/.svn/all-wcprops'
p473
sbsS'entries'
p474
g4
(g5
g6
NtRp475
(dp476
g9
g474
sg10
Nsg11
S''
sg12
I01
sg13
F1284597964
sg14
I00
sg15
S'geo/.svn'
p477
sg16
(dp478
sg23
S'geo/.svn/entries'
p479
sbssg23
S'geo/.svn'
p480
sbsS'geomodel.pyc'
p481
g4
(g5
g6
NtRp482
(dp483
g9
g481
sg10
Nsg11
S'.pyc'
p484
sg12
I01
sg13
F1285550634
sg14
I00
sg15
S'geo'
p485
sg16
(dp486
sg23
S'geo/geomodel.pyc'
p487
sbsS'geocell.py'
p488
g4
(g5
g6
NtRp489
(dp490
g9
g488
sg10
g68
sg11
S'.py'
p491
sg12
I01
sg13
F1284597964
sg14
I00
sg15
S'geo'
p492
sg16
(dp493
sg23
S'geo/geocell.py'
p494
sbsS'geomodel.py'
p495
g4
(g5
g6
NtRp496
(dp497
g9
g495
sg10
g68
sg11
S'.py'
p498
sg12
I01
sg13
F1285548286
sg14
I00
sg15
S'geo'
p499
sg16
(dp500
sg23
S'geo/geomodel.py'
p501
sbsS'._geomodel.py'
p502
g4
(g5
g6
NtRp503
(dp504
g9
g502
sg10
g68
sg11
S'.py'
p505
sg12
I01
sg13
F1287757096
sg14
I00
sg15
S'geo'
p506
sg16
(dp507
sg23
S'geo/._geomodel.py'
p508
sbsS'geomath.pyc'
p509
g4
(g5
g6
NtRp510
(dp511
g9
g509
sg10
Nsg11
S'.pyc'
p512
sg12
I01
sg13
F1285550634
sg14
I00
sg15
S'geo'
p513
sg16
(dp514
sg23
S'geo/geomath.pyc'
p515
sbsS'._geotypes.py'
p516
g4
(g5
g6
NtRp517
(dp518
g9
g516
sg10
g68
sg11
S'.py'
p519
sg12
I01
sg13
F1287757096
sg14
I00
sg15
S'geo'
p520
sg16
(dp521
sg23
S'geo/._geotypes.py'
p522
sbsS'._util.py'
p523
g4
(g5
g6
NtRp524
(dp525
g9
g523
sg10
g68
sg11
S'.py'
p526
sg12
I01
sg13
F1287757096
sg14
I00
sg15
S'geo'
p527
sg16
(dp528
sg23
S'geo/._util.py'
p529
sbsS'geotypes.py'
p530
g4
(g5
g6
NtRp531
(dp532
g9
g530
sg10
g68
sg11
S'.py'
p533
sg12
I01
sg13
F1284597964
sg14
I00
sg15
S'geo'
p534
sg16
(dp535
sg23
S'geo/geotypes.py'
p536
sbssg23
g232
sbsS'._queue.py'
p537
g4
(g5
g6
NtRp538
(dp539
g9
g537
sg10
g68
sg11
S'.py'
p540
sg12
I01
sg13
F1287757096
sg14
I00
sg15
S''
sg16
(dp541
sg23
g537
sbsS'facebook.py'
p542
g4
(g5
g6
NtRp543
(dp544
g9
g542
sg10
g68
sg11
S'.py'
p545
sg12
I01
sg13
F1286749792
sg14
I00
sg15
S''
sg16
(dp546
sg23
g542
sbsS'base.py'
p547
g4
(g5
g6
NtRp548
(dp549
g9
g547
sg10
g68
sg11
S'.py'
p550
sg12
I01
sg13
F1287538900
sg14
I00
sg15
S''
sg16
(dp551
sg23
g547
sbsS'reports'
p552
g4
(g5
g6
NtRp553
(dp554
g9
g552
sg10
Nsg11
S''
sg12
I00
sg13
F1287757098
sg14
I01
sg15
S''
sg16
(dp555
S'__init__.pyc'
p556
g4
(g5
g6
NtRp557
(dp558
g9
g556
sg10
Nsg11
S'.pyc'
p559
sg12
I01
sg13
F1285700226
sg14
I00
sg15
S'reports'
p560
sg16
(dp561
sg23
S'reports/__init__.pyc'
p562
sbsS'.___init__.py'
p563
g4
(g5
g6
NtRp564
(dp565
g9
g563
sg10
g68
sg11
S'.py'
p566
sg12
I01
sg13
F1287757098
sg14
I00
sg15
S'reports'
p567
sg16
(dp568
sg23
S'reports/.___init__.py'
p569
sbsS'._manage.py'
p570
g4
(g5
g6
NtRp571
(dp572
g9
g570
sg10
g68
sg11
S'.py'
p573
sg12
I01
sg13
F1287757098
sg14
I00
sg15
S'reports'
p574
sg16
(dp575
sg23
S'reports/._manage.py'
p576
sbsS'__init__.py'
p577
g4
(g5
g6
NtRp578
(dp579
g9
g577
sg10
g68
sg11
S'.py'
p580
sg12
I01
sg13
F1285700154
sg14
I00
sg15
S'reports'
p581
sg16
(dp582
sg23
S'reports/__init__.py'
p583
sbsS'manage.py'
p584
g4
(g5
g6
NtRp585
(dp586
g9
g584
sg10
g68
sg11
S'.py'
p587
sg12
I01
sg13
F1286767406
sg14
I00
sg15
S'reports'
p588
sg16
(dp589
sg23
S'reports/manage.py'
p590
sbsS'friends.py'
p591
g4
(g5
g6
NtRp592
(dp593
g9
g591
sg10
g68
sg11
S'.py'
p594
sg12
I01
sg13
F1287492270
sg14
I00
sg15
S'reports'
p595
sg16
(dp596
sg23
S'reports/friends.py'
p597
sbsS'._friends.py'
p598
g4
(g5
g6
NtRp599
(dp600
g9
g598
sg10
g68
sg11
S'.py'
p601
sg12
I01
sg13
F1287757098
sg14
I00
sg15
S'reports'
p602
sg16
(dp603
sg23
S'reports/._friends.py'
p604
sbssg23
g552
sbsS'admin'
p605
g4
(g5
g6
NtRp606
(dp607
g9
g605
sg10
Nsg11
S''
sg12
I00
sg13
F1287757096
sg14
I01
sg15
S''
sg16
(dp608
S'fql_explorer.py'
p609
g4
(g5
g6
NtRp610
(dp611
g9
g609
sg10
g68
sg11
S'.py'
p612
sg12
I01
sg13
F1286748662
sg14
I00
sg15
S'admin'
p613
sg16
(dp614
sg23
S'admin/fql_explorer.py'
p615
sbsS'.___init__.py'
p616
g4
(g5
g6
NtRp617
(dp618
g9
g616
sg10
g68
sg11
S'.py'
p619
sg12
I01
sg13
F1287757096
sg14
I00
sg15
S'admin'
p620
sg16
(dp621
sg23
S'admin/.___init__.py'
p622
sbsS'__init__.py'
p623
g4
(g5
g6
NtRp624
(dp625
g9
g623
sg10
g68
sg11
S'.py'
p626
sg12
I01
sg13
F1286733108
sg14
I00
sg15
S'admin'
p627
sg16
(dp628
sg23
S'admin/__init__.py'
p629
sbsS'._process.py'
p630
g4
(g5
g6
NtRp631
(dp632
g9
g630
sg10
g68
sg11
S'.py'
p633
sg12
I01
sg13
F1287757096
sg14
I00
sg15
S'admin'
p634
sg16
(dp635
sg23
S'admin/._process.py'
p636
sbsS'process.py'
p637
g4
(g5
g6
NtRp638
(dp639
g9
g637
sg10
g68
sg11
S'.py'
p640
sg12
I01
sg13
F1286769142
sg14
I00
sg15
S'admin'
p641
sg16
(dp642
sg23
S'admin/process.py'
p643
sbsS'._fql_explorer.py'
p644
g4
(g5
g6
NtRp645
(dp646
g9
g644
sg10
g68
sg11
S'.py'
p647
sg12
I01
sg13
F1287757096
sg14
I00
sg15
S'admin'
p648
sg16
(dp649
sg23
S'admin/._fql_explorer.py'
p650
sbssg23
g605
sbsS'._config.py'
p651
g4
(g5
g6
NtRp652
(dp653
g9
g651
sg10
g68
sg11
S'.py'
p654
sg12
I01
sg13
F1287757096
sg14
I00
sg15
S''
sg16
(dp655
sg23
g651
sbssg23
S''
sbsg110
g111
sg185
g186
sg393
g340
sg605
g606
sg467
g421
sg552
g553
sg480
g416
sg34
g35
sg407
g279
sg232
g233
sg406
g335
ssS'paths'
p656
(dp657
S''
g7
sg364
g359
sg18
g19
sg636
g631
sg536
g531
sg86
g87
sg96
g97
sg128
g123
sg170
g165
sg405
g401
sg197
g198
sg615
g610
sg466
g461
sg263
g258
sg212
g213
sg371
g366
sg232
g233
sg583
g578
sg142
g137
sg297
g291
sg399
g395
sg163
g158
sg249
g244
sg52
g46
sg34
g35
sg494
g489
sg71
g72
sg76
g77
sg81
g82
sg522
g517
sg270
g265
sg65
g66
sg256
g251
sg445
g440
sg135
g130
sg604
g599
sg222
g223
sg227
g228
sg643
g638
sg569
g564
sg605
g606
sg414
g409
sg552
g553
sg622
g617
sg312
g307
sg651
g652
sg333
g328
sg289
g284
sg196
g190
sg487
g482
sg24
g25
sg29
g30
sg60
g61
sg242
g237
sg508
g503
sg91
g92
sg277
g272
sg385
g380
sg101
g102
sg537
g538
sg202
g203
sg438
g433
sg467
g421
sg562
g557
sg452
g447
sg156
g151
sg184
g179
sg473
g469
sg59
g54
sg357
g352
sg177
g172
sg597
g592
sg217
g218
sg319
g314
sg378
g373
sg590
g585
sg121
g115
sg406
g335
sg480
g416
sg392
g387
sg650
g645
sg501
g496
sg393
g340
sg350
g345
sg431
g426
sg305
g299
sg105
g106
sg515
g510
sg110
g111
sg44
g39
sg185
g186
sg207
g208
sg326
g321
sg459
g454
sg149
g144
sg542
g543
sg547
g548
sg407
g279
sg479
g475
sg576
g571
sg529
g524
sg629
g624
ssS'dirnames'
p658
ccollections
defaultdict
p659
(c__builtin__
list
p660
tRp661
S''
(lp662
g7
asg110
(lp663
g111
asg185
(lp664
g186
asg420
(lp665
g421
ag340
asg278
(lp666
g279
asg552
(lp667
g553
asg605
(lp668
g606
asg34
(lp669
g35
asg232
(lp670
g233
asg334
(lp671
g335
ag416
assS'files'
p672
(dp673
g364
g359
sg18
g19
sg196
g190
sg536
g531
sg86
g87
sg96
g97
sg128
g123
sg170
g165
sg405
g401
sg197
g198
sg615
g610
sg466
g461
sg263
g258
sg212
g213
sg371
g366
sg583
g578
sg142
g137
sg297
g291
sg399
g395
sg163
g158
sg249
g244
sg52
g46
sg242
g237
sg71
g72
sg76
g77
sg81
g82
sg522
g517
sg270
g265
sg65
g66
sg256
g251
sg445
g440
sg135
g130
sg604
g599
sg222
g223
sg227
g228
sg643
g638
sg569
g564
sg414
g409
sg622
g617
sg312
g307
sg651
g652
sg333
g328
sg289
g284
sg636
g631
sg487
g482
sg24
g25
sg29
g30
sg60
g61
sg494
g489
sg508
g503
sg91
g92
sg277
g272
sg385
g380
sg202
g203
sg537
g538
sg101
g102
sg431
g426
sg562
g557
sg452
g447
sg156
g151
sg184
g179
sg473
g469
sg59
g54
sg357
g352
sg177
g172
sg597
g592
sg217
g218
sg319
g314
sg378
g373
sg590
g585
sg121
g115
sg392
g387
sg650
g645
sg501
g496
sg350
g345
sg438
g433
sg305
g299
sg105
g106
sg515
g510
sg44
g39
sg207
g208
sg576
g571
sg459
g454
sg149
g144
sg542
g543
sg547
g548
sg479
g475
sg326
g321
sg529
g524
sg629
g624
ssS'filenames'
p674
g659
(g660
tRp675
g236
(lp676
g237
ag557
asg114
(lp677
g115
asg136
(lp678
g137
asg143
(lp679
g144
asg18
(lp680
g19
asg609
(lp681
g610
asg439
(lp682
g440
asg271
(lp683
g272
asg563
(lp684
g564
ag617
asg298
(lp685
g299
asg29
(lp686
g30
asg547
(lp687
g548
asg243
(lp688
g244
asg637
(lp689
g638
asg306
(lp690
g307
asg178
(lp691
g179
asg630
(lp692
g631
asg327
(lp693
g328
ag61
asg65
(lp694
g66
asg537
(lp695
g538
asg570
(lp696
g571
asg394
(lp697
g395
ag469
asg530
(lp698
g531
asg217
(lp699
g218
asg71
(lp700
g72
asg76
(lp701
g77
asg81
(lp702
g82
asg379
(lp703
g380
asg207
(lp704
g208
asg86
(lp705
g87
asg150
(lp706
g151
asg189
(lp707
g190
asg344
(lp708
g345
asg157
(lp709
g158
asg91
(lp710
g92
asg358
(lp711
g359
asg542
(lp712
g543
asg290
(lp713
g291
asg96
(lp714
g97
asg164
(lp715
g165
asg365
(lp716
g366
asg495
(lp717
g496
asg101
(lp718
g102
asg313
(lp719
g314
asg598
(lp720
g599
asg502
(lp721
g503
asg122
(lp722
g123
asg24
(lp723
g25
asg197
(lp724
g198
asg202
(lp725
g203
asg257
(lp726
g258
asg509
(lp727
g510
asg212
(lp728
g213
asg591
(lp729
g592
asg351
(lp730
g352
asg400
(lp731
g401
ag475
asg222
(lp732
g223
asg227
(lp733
g228
asg523
(lp734
g524
asg460
(lp735
g461
asg425
(lp736
g426
asg481
(lp737
g482
asg250
(lp738
g251
asg129
(lp739
g130
asg386
(lp740
g387
asg432
(lp741
g433
asg488
(lp742
g489
asg264
(lp743
g265
asg45
(lp744
g46
asg283
(lp745
g284
asg171
(lp746
g172
asg577
(lp747
g578
ag409
ag624
asg584
(lp748
g585
asg38
(lp749
g39
asg446
(lp750
g447
asg53
(lp751
g54
asg320
(lp752
g321
asg372
(lp753
g373
asg651
(lp754
g652
asg644
(lp755
g645
asg516
(lp756
g517
asg453
(lp757
g454
asg105
(lp758
g106
ass.